; Function Attrs: mustprogress uwtable
define internal void @_ZL23llama_sampler_xtc_resetP13llama_sampler(ptr noundef readonly captures(none) %0) #0 {
  %2 = getelementptr inbounds nuw i8, ptr %0, i64 8
  %3 = load ptr, ptr %2, align 8, !tbaa !9
  %4 = getelementptr inbounds nuw i8, ptr %3, i64 16
  %5 = load i32, ptr %4, align 8, !tbaa !80
  %6 = tail call fastcc noundef i32 @_ZL12get_rng_seedj(i32 noundef %5)
  %7 = getelementptr inbounds nuw i8, ptr %3, i64 20
  store i32 %6, ptr %7, align 4, !tbaa !81
  %8 = getelementptr inbounds nuw i8, ptr %3, i64 24
  %9 = zext i32 %6 to i64
  store i64 %9, ptr %8, align 8, !tbaa !46
  br label %10

10:                                               ; preds = %10, %1
  %11 = phi i64 [ %9, %1 ], [ %16, %10 ]
  %.011.i = phi i64 [ 1, %1 ], [ %18, %10 ]
  %12 = lshr i64 %11, 30
  %13 = xor i64 %12, %11
  %14 = mul nuw nsw i64 %13, 1812433253
  %15 = add nuw i64 %14, %.011.i
  %16 = and i64 %15, 4294967295
  %17 = getelementptr inbounds nuw [624 x i64], ptr %8, i64 0, i64 %.011.i
  store i64 %16, ptr %17, align 8, !tbaa !46
  %18 = add nuw nsw i64 %.011.i, 1
  %exitcond.not.i = icmp eq i64 %18, 624
  br i1 %exitcond.not.i, label %_ZNSt23mersenne_twister_engineImLm32ELm624ELm397ELm31ELm2567483615ELm11ELm4294967295ELm7ELm2636928640ELm15ELm4022730752ELm18ELm1812433253EE4seedEm.exit, label %10, !llvm.loop !47

_ZNSt23mersenne_twister_engineImLm32ELm624ELm397ELm31ELm2567483615ELm11ELm4294967295ELm7ELm2636928640ELm15ELm4022730752ELm18ELm1812433253EE4seedEm.exit: ; preds = %10
  %19 = getelementptr inbounds nuw i8, ptr %3, i64 5016
  store i64 624, ptr %19, align 8, !tbaa !48
  ret void
}